target datalayout = "e-m:e-p270:32:32-p271:32:32-p272:64:64-i64:64-i128:128-f80:128-n8:16:32:64-S128"
target triple = "x86_64-pc-linux-gnu"

%struct.dirent = type { i64, i64, i16, i8, [256 x i8] }

@.str.4 = private unnamed_addr constant [20 x i8] c"pg_logical/mappings\00", align 1
@.str.6 = private unnamed_addr constant [14 x i8] c"rewriteheap.c\00", align 1
@.str.9 = private unnamed_addr constant [30 x i8] c"could not fsync file \22%s\22: %m\00", align 1
@.str.10 = private unnamed_addr constant [30 x i8] c"could not close file \22%s\22: %m\00", align 1
@.str.11 = private unnamed_addr constant [2 x i8] c".\00", align 1
@.str.12 = private unnamed_addr constant [3 x i8] c"..\00", align 1
@.str.13 = private unnamed_addr constant [6 x i8] c"%s/%s\00", align 1
@.str.14 = private unnamed_addr constant [5 x i8] c"map-\00", align 1
@.str.15 = private unnamed_addr constant [22 x i8] c"map-%x-%x-%X_%X-%x-%x\00", align 1
@.str.16 = private unnamed_addr constant [30 x i8] c"could not parse filename \22%s\22\00", align 1
@__func__.CheckPointLogicalRewriteHeap = private unnamed_addr constant [29 x i8] c"CheckPointLogicalRewriteHeap\00", align 1
@.str.17 = private unnamed_addr constant [35 x i8] c"removing logical rewrite file \22%s\22\00", align 1
@.str.18 = private unnamed_addr constant [31 x i8] c"could not remove file \22%s\22: %m\00", align 1
@.str.19 = private unnamed_addr constant [29 x i8] c"could not open file \22%s\22: %m\00", align 1
@my_wait_event_info = external global ptr, align 8

; Function Attrs: inlinehint nounwind uwtable
define internal void @pgstat_report_wait_end() #3 {
  %1 = load ptr, ptr @my_wait_event_info, align 8
  store volatile i32 0, ptr %1, align 4
  ret void
}

; Function Attrs: inlinehint nounwind uwtable
define internal void @pgstat_report_wait_start(i32 noundef %0) #3 {
  %2 = alloca i32, align 4
  store i32 %0, ptr %2, align 4
  %3 = load i32, ptr %2, align 4
  %4 = load ptr, ptr @my_wait_event_info, align 8
  store volatile i32 %3, ptr %4, align 4
  ret void
}

; Function Attrs: nounwind uwtable
define dso_local void @CheckPointLogicalRewriteHeap() #0 {
  %1 = alloca i64, align 8
  %2 = alloca i64, align 8
  %3 = alloca ptr, align 8
  %4 = alloca ptr, align 8
  %5 = alloca [1044 x i8], align 16
  %6 = alloca i32, align 4
  %7 = alloca i32, align 4
  %8 = alloca i64, align 8
  %9 = alloca i32, align 4
  %10 = alloca i32, align 4
  %11 = alloca i32, align 4
  %12 = alloca i32, align 4
  %13 = alloca i32, align 4
  %14 = alloca i32, align 4
  %15 = alloca i32, align 4
  call void @llvm.lifetime.start.p0(i64 8, ptr %1) #10
  call void @llvm.lifetime.start.p0(i64 8, ptr %2) #10
  call void @llvm.lifetime.start.p0(i64 8, ptr %3) #10
  call void @llvm.lifetime.start.p0(i64 8, ptr %4) #10
  call void @llvm.lifetime.start.p0(i64 1044, ptr %5) #10
  %16 = call i64 @GetRedoRecPtr()
  store i64 %16, ptr %2, align 8
  %17 = call i64 @ReplicationSlotsComputeLogicalRestartLSN()
  store i64 %17, ptr %1, align 8
  %18 = load i64, ptr %1, align 8
  %19 = icmp ne i64 %18, 0
  br i1 %19, label %20, label %26

20:                                               ; preds = %0
  %21 = load i64, ptr %2, align 8
  %22 = load i64, ptr %1, align 8
  %23 = icmp ult i64 %21, %22
  br i1 %23, label %24, label %26

24:                                               ; preds = %20
  %25 = load i64, ptr %2, align 8
  store i64 %25, ptr %1, align 8
  br label %26

26:                                               ; preds = %24, %20, %0
  %27 = call ptr @AllocateDir(ptr noundef @.str.4)
  store ptr %27, ptr %3, align 8
  br label %28

28:                                               ; preds = %190, %188, %26
  %29 = load ptr, ptr %3, align 8
  %30 = call ptr @ReadDir(ptr noundef %29, ptr noundef @.str.4)
  store ptr %30, ptr %4, align 8
  %31 = icmp ne ptr %30, null
  br i1 %31, label %32, label %191

32:                                               ; preds = %28
  call void @llvm.lifetime.start.p0(i64 4, ptr %6) #10
  call void @llvm.lifetime.start.p0(i64 4, ptr %7) #10
  call void @llvm.lifetime.start.p0(i64 8, ptr %8) #10
  call void @llvm.lifetime.start.p0(i64 4, ptr %9) #10
  call void @llvm.lifetime.start.p0(i64 4, ptr %10) #10
  call void @llvm.lifetime.start.p0(i64 4, ptr %11) #10
  call void @llvm.lifetime.start.p0(i64 4, ptr %12) #10
  call void @llvm.lifetime.start.p0(i64 4, ptr %13) #10
  %33 = load ptr, ptr %4, align 8
  %34 = getelementptr inbounds nuw %struct.dirent, ptr %33, i32 0, i32 4
  %35 = getelementptr inbounds [256 x i8], ptr %34, i64 0, i64 0
  %36 = call i32 @strcmp(ptr noundef %35, ptr noundef @.str.11) #13
  %37 = icmp eq i32 %36, 0
  br i1 %37, label %44, label %38

38:                                               ; preds = %32
  %39 = load ptr, ptr %4, align 8
  %40 = getelementptr inbounds nuw %struct.dirent, ptr %39, i32 0, i32 4
  %41 = getelementptr inbounds [256 x i8], ptr %40, i64 0, i64 0
  %42 = call i32 @strcmp(ptr noundef %41, ptr noundef @.str.12) #13
  %43 = icmp eq i32 %42, 0
  br i1 %43, label %44, label %45

44:                                               ; preds = %38, %32
  store i32 2, ptr %14, align 4
  br label %188, !llvm.loop !9

45:                                               ; preds = %38
  %46 = getelementptr inbounds [1044 x i8], ptr %5, i64 0, i64 0
  %47 = load ptr, ptr %4, align 8
  %48 = getelementptr inbounds nuw %struct.dirent, ptr %47, i32 0, i32 4
  %49 = getelementptr inbounds [256 x i8], ptr %48, i64 0, i64 0
  %50 = call i32 (ptr, i64, ptr, ...) @pg_snprintf(ptr noundef %46, i64 noundef 1044, ptr noundef @.str.13, ptr noundef @.str.4, ptr noundef %49)
  %51 = getelementptr inbounds [1044 x i8], ptr %5, i64 0, i64 0
  %52 = load ptr, ptr %4, align 8
  %53 = call i32 @get_dirent_type(ptr noundef %51, ptr noundef %52, i1 noundef zeroext false, i32 noundef 14)
  store i32 %53, ptr %13, align 4
  %54 = load i32, ptr %13, align 4
  %55 = icmp ne i32 %54, 0
  br i1 %55, label %56, label %60

56:                                               ; preds = %45
  %57 = load i32, ptr %13, align 4
  %58 = icmp ne i32 %57, 2
  br i1 %58, label %59, label %60

59:                                               ; preds = %56
  store i32 2, ptr %14, align 4
  br label %188, !llvm.loop !9

60:                                               ; preds = %56, %45
  %61 = load ptr, ptr %4, align 8
  %62 = getelementptr inbounds nuw %struct.dirent, ptr %61, i32 0, i32 4
  %63 = getelementptr inbounds [256 x i8], ptr %62, i64 0, i64 0
  %64 = call i32 @strncmp(ptr noundef %63, ptr noundef @.str.14, i64 noundef 4) #13
  %65 = icmp ne i32 %64, 0
  br i1 %65, label %66, label %67

66:                                               ; preds = %60
  store i32 2, ptr %14, align 4
  br label %188, !llvm.loop !9

67:                                               ; preds = %60
  %68 = load ptr, ptr %4, align 8
  %69 = getelementptr inbounds nuw %struct.dirent, ptr %68, i32 0, i32 4
  %70 = getelementptr inbounds [256 x i8], ptr %69, i64 0, i64 0
  %71 = call i32 (ptr, ptr, ...) @__isoc99_sscanf(ptr noundef %70, ptr noundef @.str.15, ptr noundef %6, ptr noundef %7, ptr noundef %11, ptr noundef %12, ptr noundef %9, ptr noundef %10) #10
  %72 = icmp ne i32 %71, 6
  br i1 %72, label %73, label %87

73:                                               ; preds = %67
  br label %74

74:                                               ; preds = %73
  br i1 true, label %75, label %77

75:                                               ; preds = %74
  %76 = call zeroext i1 @errstart_cold(i32 noundef 21, ptr noundef null) #11
  br i1 %76, label %79, label %84

77:                                               ; preds = %74
  %78 = call zeroext i1 @errstart(i32 noundef 21, ptr noundef null)
  br i1 %78, label %79, label %84

79:                                               ; preds = %77, %75
  %80 = load ptr, ptr %4, align 8
  %81 = getelementptr inbounds nuw %struct.dirent, ptr %80, i32 0, i32 4
  %82 = getelementptr inbounds [256 x i8], ptr %81, i64 0, i64 0
  %83 = call i32 (ptr, ...) @errmsg_internal(ptr noundef @.str.16, ptr noundef %82)
  call void @errfinish(ptr noundef @.str.6, i32 noundef 1204, ptr noundef @__func__.CheckPointLogicalRewriteHeap)
  br label %84

84:                                               ; preds = %79, %77, %75
  unreachable

85:                                               ; No predecessors!
  br label %86

86:                                               ; preds = %85
  br label %87

87:                                               ; preds = %86, %67
  %88 = load i32, ptr %11, align 4
  %89 = zext i32 %88 to i64
  %90 = shl i64 %89, 32
  %91 = load i32, ptr %12, align 4
  %92 = zext i32 %91 to i64
  %93 = or i64 %90, %92
  store i64 %93, ptr %8, align 8
  %94 = load i64, ptr %8, align 8
  %95 = load i64, ptr %1, align 8
  %96 = icmp ult i64 %94, %95
  br i1 %96, label %100, label %97

97:                                               ; preds = %87
  %98 = load i64, ptr %1, align 8
  %99 = icmp eq i64 %98, 0
  br i1 %99, label %100, label %129

100:                                              ; preds = %97, %87
  br label %101

101:                                              ; preds = %100
  br i1 false, label %102, label %104

102:                                              ; preds = %101
  %103 = call zeroext i1 @errstart_cold(i32 noundef 14, ptr noundef null) #11
  br i1 %103, label %106, label %109

104:                                              ; preds = %101
  %105 = call zeroext i1 @errstart(i32 noundef 14, ptr noundef null)
  br i1 %105, label %106, label %109

106:                                              ; preds = %104, %102
  %107 = getelementptr inbounds [1044 x i8], ptr %5, i64 0, i64 0
  %108 = call i32 (ptr, ...) @errmsg_internal(ptr noundef @.str.17, ptr noundef %107)
  call void @errfinish(ptr noundef @.str.6, i32 noundef 1210, ptr noundef @__func__.CheckPointLogicalRewriteHeap)
  br label %109

109:                                              ; preds = %106, %104, %102
  br label %110

110:                                              ; preds = %109
  br label %111

111:                                              ; preds = %110
  %112 = getelementptr inbounds [1044 x i8], ptr %5, i64 0, i64 0
  %113 = call i32 @unlink(ptr noundef %112) #10
  %114 = icmp slt i32 %113, 0
  br i1 %114, label %115, label %128

115:                                              ; preds = %111
  br label %116

116:                                              ; preds = %115
  br i1 true, label %117, label %119

117:                                              ; preds = %116
  %118 = call zeroext i1 @errstart_cold(i32 noundef 21, ptr noundef null) #11
  br i1 %118, label %121, label %125

119:                                              ; preds = %116
  %120 = call zeroext i1 @errstart(i32 noundef 21, ptr noundef null)
  br i1 %120, label %121, label %125

121:                                              ; preds = %119, %117
  %122 = call i32 @errcode_for_file_access()
  %123 = getelementptr inbounds [1044 x i8], ptr %5, i64 0, i64 0
  %124 = call i32 (ptr, ...) @errmsg(ptr noundef @.str.18, ptr noundef %123)
  call void @errfinish(ptr noundef @.str.6, i32 noundef 1214, ptr noundef @__func__.CheckPointLogicalRewriteHeap)
  br label %125

125:                                              ; preds = %121, %119, %117
  unreachable

126:                                              ; No predecessors!
  br label %127

127:                                              ; preds = %126
  br label %128

128:                                              ; preds = %127, %111
  br label %187

129:                                              ; preds = %97
  call void @llvm.lifetime.start.p0(i64 4, ptr %15) #10
  %130 = getelementptr inbounds [1044 x i8], ptr %5, i64 0, i64 0
  %131 = call i32 @OpenTransientFile(ptr noundef %130, i32 noundef 2)
  store i32 %131, ptr %15, align 4
  %132 = load i32, ptr %15, align 4
  %133 = icmp slt i32 %132, 0
  br i1 %133, label %134, label %147

134:                                              ; preds = %129
  br label %135

135:                                              ; preds = %134
  br i1 true, label %136, label %138

136:                                              ; preds = %135
  %137 = call zeroext i1 @errstart_cold(i32 noundef 21, ptr noundef null) #11
  br i1 %137, label %140, label %144

138:                                              ; preds = %135
  %139 = call zeroext i1 @errstart(i32 noundef 21, ptr noundef null)
  br i1 %139, label %140, label %144

140:                                              ; preds = %138, %136
  %141 = call i32 @errcode_for_file_access()
  %142 = getelementptr inbounds [1044 x i8], ptr %5, i64 0, i64 0
  %143 = call i32 (ptr, ...) @errmsg(ptr noundef @.str.19, ptr noundef %142)
  call void @errfinish(ptr noundef @.str.6, i32 noundef 1229, ptr noundef @__func__.CheckPointLogicalRewriteHeap)
  br label %144

144:                                              ; preds = %140, %138, %136
  unreachable

145:                                              ; No predecessors!
  br label %146

146:                                              ; preds = %145
  br label %147

147:                                              ; preds = %146, %129
  call void @pgstat_report_wait_start(i32 noundef 167772190)
  %148 = load i32, ptr %15, align 4
  %149 = call i32 @pg_fsync(i32 noundef %148)
  %150 = icmp ne i32 %149, 0
  br i1 %150, label %151, label %169

151:                                              ; preds = %147
  br label %152

152:                                              ; preds = %151
  br i1 false, label %153, label %159

153:                                              ; preds = %152
  %154 = call i32 @data_sync_elevel(i32 noundef 21)
  %155 = icmp sge i32 %154, 21
  br i1 %155, label %156, label %159

156:                                              ; preds = %153
  %157 = call i32 @data_sync_elevel(i32 noundef 21)
  %158 = call zeroext i1 @errstart_cold(i32 noundef %157, ptr noundef null) #11
  br i1 %158, label %162, label %166

159:                                              ; preds = %153, %152
  %160 = call i32 @data_sync_elevel(i32 noundef 21)
  %161 = call zeroext i1 @errstart(i32 noundef %160, ptr noundef null)
  br i1 %161, label %162, label %166

162:                                              ; preds = %159, %156
  %163 = call i32 @errcode_for_file_access()
  %164 = getelementptr inbounds [1044 x i8], ptr %5, i64 0, i64 0
  %165 = call i32 (ptr, ...) @errmsg(ptr noundef @.str.9, ptr noundef %164)
  call void @errfinish(ptr noundef @.str.6, i32 noundef 1240, ptr noundef @__func__.CheckPointLogicalRewriteHeap)
  br label %166

166:                                              ; preds = %162, %159, %156
  br label %167

167:                                              ; preds = %166
  br label %168

168:                                              ; preds = %167
  br label %169

169:                                              ; preds = %168, %147
  call void @pgstat_report_wait_end()
  %170 = load i32, ptr %15, align 4
  %171 = call i32 @CloseTransientFile(i32 noundef %170)
  %172 = icmp ne i32 %171, 0
  br i1 %172, label %173, label %186

173:                                              ; preds = %169
  br label %174

174:                                              ; preds = %173
  br i1 true, label %175, label %177

175:                                              ; preds = %174
  %176 = call zeroext i1 @errstart_cold(i32 noundef 21, ptr noundef null) #11
  br i1 %176, label %179, label %183

177:                                              ; preds = %174
  %178 = call zeroext i1 @errstart(i32 noundef 21, ptr noundef null)
  br i1 %178, label %179, label %183

179:                                              ; preds = %177, %175
  %180 = call i32 @errcode_for_file_access()
  %181 = getelementptr inbounds [1044 x i8], ptr %5, i64 0, i64 0
  %182 = call i32 (ptr, ...) @errmsg(ptr noundef @.str.10, ptr noundef %181)
  call void @errfinish(ptr noundef @.str.6, i32 noundef 1246, ptr noundef @__func__.CheckPointLogicalRewriteHeap)
  br label %183

183:                                              ; preds = %179, %177, %175
  unreachable

184:                                              ; No predecessors!
  br label %185

185:                                              ; preds = %184
  br label %186

186:                                              ; preds = %185, %169
  call void @llvm.lifetime.end.p0(i64 4, ptr %15) #10
  br label %187

187:                                              ; preds = %186, %128
  store i32 0, ptr %14, align 4
  br label %188

188:                                              ; preds = %187, %66, %59, %44
  call void @llvm.lifetime.end.p0(i64 4, ptr %13) #10
  call void @llvm.lifetime.end.p0(i64 4, ptr %12) #10
  call void @llvm.lifetime.end.p0(i64 4, ptr %11) #10
  call void @llvm.lifetime.end.p0(i64 4, ptr %10) #10
  call void @llvm.lifetime.end.p0(i64 4, ptr %9) #10
  call void @llvm.lifetime.end.p0(i64 8, ptr %8) #10
  call void @llvm.lifetime.end.p0(i64 4, ptr %7) #10
  call void @llvm.lifetime.end.p0(i64 4, ptr %6) #10
  %189 = load i32, ptr %14, align 4
  switch i32 %189, label %194 [
    i32 0, label %190
    i32 2, label %28
  ]

190:                                              ; preds = %188
  br label %28, !llvm.loop !9

191:                                              ; preds = %28
  %192 = load ptr, ptr %3, align 8
  %193 = call i32 @FreeDir(ptr noundef %192)
  call void @fsync_fname(ptr noundef @.str.4, i1 noundef zeroext true)
  call void @llvm.lifetime.end.p0(i64 1044, ptr %5) #10
  call void @llvm.lifetime.end.p0(i64 8, ptr %4) #10
  call void @llvm.lifetime.end.p0(i64 8, ptr %3) #10
  call void @llvm.lifetime.end.p0(i64 8, ptr %2) #10
  call void @llvm.lifetime.end.p0(i64 8, ptr %1) #10
  ret void

194:                                              ; preds = %188
  unreachable
}