; Function Attrs: nounwind uwtable
define dso_local void @CheckPointLogicalRewriteHeap() local_unnamed_addr #0 {
  %1 = alloca [1044 x i8], align 16
  %2 = alloca i32, align 4
  %3 = alloca i32, align 4
  %4 = alloca i32, align 4
  %5 = alloca i32, align 4
  %6 = alloca i32, align 4
  %7 = alloca i32, align 4
  call void @llvm.lifetime.start.p0(i64 1044, ptr nonnull %1) #13
  %8 = tail call i64 @GetRedoRecPtr() #13
  %9 = tail call i64 @ReplicationSlotsComputeLogicalRestartLSN() #13
  %.not = icmp ne i64 %9, 0
  %10 = tail call ptr @AllocateDir(ptr noundef nonnull @.str.4) #13
  %11 = tail call ptr @ReadDir(ptr noundef %10, ptr noundef nonnull @.str.4) #13
  %.not2740 = icmp eq ptr %11, null
  br i1 %.not2740, label %._crit_edge, label %sub_0.lr.ph

sub_0.lr.ph:                                      ; preds = %0
  %spec.select = tail call i64 @llvm.umin.i64(i64 %8, i64 %9)
  %12 = add i64 %spec.select, -1
  br label %sub_0

sub_0:                                            ; preds = %sub_0.lr.ph, %75
  %13 = phi ptr [ %11, %sub_0.lr.ph ], [ %76, %75 ]
  call void @llvm.lifetime.start.p0(i64 4, ptr nonnull %2) #13
  call void @llvm.lifetime.start.p0(i64 4, ptr nonnull %3) #13
  call void @llvm.lifetime.start.p0(i64 4, ptr nonnull %4) #13
  call void @llvm.lifetime.start.p0(i64 4, ptr nonnull %5) #13
  call void @llvm.lifetime.start.p0(i64 4, ptr nonnull %6) #13
  call void @llvm.lifetime.start.p0(i64 4, ptr nonnull %7) #13
  %14 = getelementptr inbounds nuw i8, ptr %13, i64 19
  %15 = load i8, ptr %14, align 1
  %.not41 = icmp eq i8 %15, 46
  br i1 %.not41, label %.tail, label %.tail33.thread

.tail:                                            ; preds = %sub_0
  %16 = getelementptr inbounds nuw i8, ptr %13, i64 20
  %17 = load i8, ptr %16, align 1
  %18 = icmp eq i8 %17, 0
  br i1 %18, label %75, label %sub_135, !llvm.loop !9

sub_135:                                          ; preds = %.tail
  %19 = getelementptr inbounds nuw i8, ptr %13, i64 20
  %20 = load i8, ptr %19, align 1
  %.not43 = icmp eq i8 %20, 46
  br i1 %.not43, label %.tail33, label %.tail33.thread

.tail33:                                          ; preds = %sub_135
  %21 = getelementptr inbounds nuw i8, ptr %13, i64 21
  %22 = load i8, ptr %21, align 1
  %23 = icmp eq i8 %22, 0
  br i1 %23, label %75, label %.tail33.thread, !llvm.loop !9

.tail33.thread:                                   ; preds = %sub_0, %sub_135, %.tail33
  %24 = call i32 (ptr, i64, ptr, ...) @pg_snprintf(ptr noundef nonnull %1, i64 noundef 1044, ptr noundef nonnull @.str.13, ptr noundef nonnull @.str.4, ptr noundef nonnull %14) #13
  %25 = call i32 @get_dirent_type(ptr noundef nonnull %1, ptr noundef nonnull %13, i1 noundef zeroext false, i32 noundef 14) #13
  %26 = and i32 %25, -3
  %or.cond.not = icmp eq i32 %26, 0
  br i1 %or.cond.not, label %27, label %75, !llvm.loop !9

27:                                               ; preds = %.tail33.thread
  %28 = call i32 @strncmp(ptr noundef nonnull dereferenceable(1) %14, ptr noundef nonnull dereferenceable(5) @.str.14, i64 noundef 4) #16
  %.not28 = icmp eq i32 %28, 0
  br i1 %.not28, label %29, label %75, !llvm.loop !9

29:                                               ; preds = %27
  %30 = call i32 (ptr, ptr, ...) @__isoc99_sscanf(ptr noundef nonnull %14, ptr noundef nonnull @.str.15, ptr noundef nonnull %2, ptr noundef nonnull %3, ptr noundef nonnull %6, ptr noundef nonnull %7, ptr noundef nonnull %4, ptr noundef nonnull %5) #13
  %.not29 = icmp eq i32 %30, 6
  br i1 %.not29, label %34, label %31

31:                                               ; preds = %29
  %32 = call zeroext i1 @errstart_cold(i32 noundef 21, ptr noundef null) #14
  call void @llvm.assume(i1 %32)
  %33 = call i32 (ptr, ...) @errmsg_internal(ptr noundef nonnull @.str.16, ptr noundef nonnull %14) #13
  call void @errfinish(ptr noundef nonnull @.str.6, i32 noundef 1204, ptr noundef nonnull @__func__.CheckPointLogicalRewriteHeap) #13
  unreachable

34:                                               ; preds = %29
  %35 = load i32, ptr %6, align 4
  %36 = zext i32 %35 to i64
  %37 = shl nuw i64 %36, 32
  %38 = load i32, ptr %7, align 4
  %39 = zext i32 %38 to i64
  %40 = or disjoint i64 %37, %39
  %or.cond3.not32 = icmp ult i64 %12, %40
  %or.cond3.not = select i1 %.not, i1 %or.cond3.not32, i1 false
  br i1 %or.cond3.not, label %52, label %41

41:                                               ; preds = %34
  %42 = call zeroext i1 @errstart(i32 noundef 14, ptr noundef null) #13
  br i1 %42, label %43, label %45

43:                                               ; preds = %41
  %44 = call i32 (ptr, ...) @errmsg_internal(ptr noundef nonnull @.str.17, ptr noundef nonnull %1) #13
  call void @errfinish(ptr noundef nonnull @.str.6, i32 noundef 1210, ptr noundef nonnull @__func__.CheckPointLogicalRewriteHeap) #13
  br label %45

45:                                               ; preds = %43, %41
  %46 = call i32 @unlink(ptr noundef nonnull %1) #13
  %47 = icmp slt i32 %46, 0
  br i1 %47, label %48, label %75

48:                                               ; preds = %45
  %49 = call zeroext i1 @errstart_cold(i32 noundef 21, ptr noundef null) #14
  call void @llvm.assume(i1 %49)
  %50 = call i32 @errcode_for_file_access() #13
  %51 = call i32 (ptr, ...) @errmsg(ptr noundef nonnull @.str.18, ptr noundef nonnull %1) #13
  call void @errfinish(ptr noundef nonnull @.str.6, i32 noundef 1214, ptr noundef nonnull @__func__.CheckPointLogicalRewriteHeap) #13
  unreachable

52:                                               ; preds = %34
  %53 = call i32 @OpenTransientFile(ptr noundef nonnull %1, i32 noundef 2) #13
  %54 = icmp slt i32 %53, 0
  br i1 %54, label %55, label %59

55:                                               ; preds = %52
  %56 = call zeroext i1 @errstart_cold(i32 noundef 21, ptr noundef null) #14
  call void @llvm.assume(i1 %56)
  %57 = call i32 @errcode_for_file_access() #13
  %58 = call i32 (ptr, ...) @errmsg(ptr noundef nonnull @.str.19, ptr noundef nonnull %1) #13
  call void @errfinish(ptr noundef nonnull @.str.6, i32 noundef 1229, ptr noundef nonnull @__func__.CheckPointLogicalRewriteHeap) #13
  unreachable

59:                                               ; preds = %52
  %60 = load ptr, ptr @my_wait_event_info, align 8
  store volatile i32 167772190, ptr %60, align 4
  %61 = call i32 @pg_fsync(i32 noundef %53) #13
  %.not30 = icmp eq i32 %61, 0
  br i1 %.not30, label %68, label %62

62:                                               ; preds = %59
  %63 = call i32 @data_sync_elevel(i32 noundef 21) #13
  %64 = call zeroext i1 @errstart(i32 noundef %63, ptr noundef null) #13
  br i1 %64, label %65, label %68

65:                                               ; preds = %62
  %66 = call i32 @errcode_for_file_access() #13
  %67 = call i32 (ptr, ...) @errmsg(ptr noundef nonnull @.str.9, ptr noundef nonnull %1) #13
  call void @errfinish(ptr noundef nonnull @.str.6, i32 noundef 1240, ptr noundef nonnull @__func__.CheckPointLogicalRewriteHeap) #13
  br label %68

68:                                               ; preds = %62, %65, %59
  %69 = load ptr, ptr @my_wait_event_info, align 8
  store volatile i32 0, ptr %69, align 4
  %70 = call i32 @CloseTransientFile(i32 noundef %53) #13
  %.not31 = icmp eq i32 %70, 0
  br i1 %.not31, label %75, label %71

71:                                               ; preds = %68
  %72 = call zeroext i1 @errstart_cold(i32 noundef 21, ptr noundef null) #14
  call void @llvm.assume(i1 %72)
  %73 = call i32 @errcode_for_file_access() #13
  %74 = call i32 (ptr, ...) @errmsg(ptr noundef nonnull @.str.10, ptr noundef nonnull %1) #13
  call void @errfinish(ptr noundef nonnull @.str.6, i32 noundef 1246, ptr noundef nonnull @__func__.CheckPointLogicalRewriteHeap) #13
  unreachable

75:                                               ; preds = %45, %68, %27, %.tail33.thread, %.tail, %.tail33
  call void @llvm.lifetime.end.p0(i64 4, ptr nonnull %7) #13
  call void @llvm.lifetime.end.p0(i64 4, ptr nonnull %6) #13
  call void @llvm.lifetime.end.p0(i64 4, ptr nonnull %5) #13
  call void @llvm.lifetime.end.p0(i64 4, ptr nonnull %4) #13
  call void @llvm.lifetime.end.p0(i64 4, ptr nonnull %3) #13
  call void @llvm.lifetime.end.p0(i64 4, ptr nonnull %2) #13
  %76 = call ptr @ReadDir(ptr noundef %10, ptr noundef nonnull @.str.4) #13
  %.not27 = icmp eq ptr %76, null
  br i1 %.not27, label %._crit_edge, label %sub_0

._crit_edge:                                      ; preds = %75, %0
  %77 = call i32 @FreeDir(ptr noundef %10) #13
  call void @fsync_fname(ptr noundef nonnull @.str.4, i1 noundef zeroext true) #13
  call void @llvm.lifetime.end.p0(i64 1044, ptr nonnull %1) #13
  ret void
}